; Function Attrs: mustprogress nofree nounwind willreturn memory(write, argmem: readwrite) uwtable
define hidden noundef zeroext i1 @_ZNK3p2t5Sweep37AngleExceedsPlus90DegreesOrIsNegativeEPKNS_5PointES3_S3_(ptr noundef nonnull readnone align 8 captures(none) dereferenceable(24) %0, ptr noundef readonly captures(none) %1, ptr noundef readonly captures(none) %2, ptr noundef readonly captures(none) %3) local_unnamed_addr #9 align 2 {
  %5 = load double, ptr %1, align 8
  %6 = getelementptr inbounds nuw i8, ptr %1, i64 8
  %7 = load double, ptr %6, align 8
  %8 = load double, ptr %2, align 8
  %9 = fsub double %8, %5
  %10 = getelementptr inbounds nuw i8, ptr %2, i64 8
  %11 = load double, ptr %10, align 8
  %12 = fsub double %11, %7
  %13 = load double, ptr %3, align 8
  %14 = fsub double %13, %5
  %15 = getelementptr inbounds nuw i8, ptr %3, i64 8
  %16 = load double, ptr %15, align 8
  %17 = fsub double %16, %7
  %18 = fneg double %14
  %19 = fmul double %12, %18
  %20 = tail call double @llvm.fmuladd.f64(double %9, double %17, double %19)
  %21 = fmul double %12, %17
  %22 = tail call double @llvm.fmuladd.f64(double %9, double %14, double %21)
  %23 = tail call noundef double @atan2(double noundef %20, double noundef %22) #20
  %24 = fcmp ogt double %23, 0x3FF921FB54442D18
  %25 = fcmp olt double %23, 0.000000e+00
  %26 = or i1 %24, %25
  ret i1 %26
}